; Function Attrs: mustprogress uwtable
define internal noundef zeroext i1 @"_ZN4absl12lts_2024072222internal_any_invocable12LocalInvokerILb0EbRKZN9grpc_core11ChannelInit18FilterRegistration12IfChannelArgEPKcbE3$_0JRKNS3_11ChannelArgsEEEET0_PNS1_15TypeErasedStateEDpNS1_18ForwardedParameterIT2_E4typeE"(ptr noundef readonly captures(none) %0, ptr noundef nonnull align 8 dereferenceable(8) %1) #3 personality ptr @__gxx_personality_v0 {
  %3 = load ptr, ptr %0, align 8, !tbaa !356
  %4 = tail call noundef i64 @strlen(ptr noundef nonnull dereferenceable(1) %3) #34
  %5 = tail call i16 @_ZNK9grpc_core11ChannelArgs7GetBoolESt17basic_string_viewIcSt11char_traitsIcEE(ptr noundef nonnull align 8 dereferenceable(8) %1, i64 %4, ptr nonnull %3)
  %.sroa.02.0.extract.trunc.i.i.i.i.i = trunc i16 %5 to i8
  %6 = getelementptr inbounds nuw i8, ptr %0, i64 8
  %7 = and i16 %5, 256
  %.not.i.i.i.i.i = icmp eq i16 %7, 0
  %.val3.i.i.i.i.i.i = load i8, ptr %6, align 1, !range !95
  %.0.in.i.i.i.i.i.i = select i1 %.not.i.i.i.i.i, i8 %.val3.i.i.i.i.i.i, i8 %.sroa.02.0.extract.trunc.i.i.i.i.i
  %.0.i.i.i.i.i.i = trunc nuw i8 %.0.in.i.i.i.i.i.i to i1
  ret i1 %.0.i.i.i.i.i.i
}